(dp0
S'n02317335'
p1
cnumpy.core.multiarray
scalar
p2
(cnumpy
dtype
p3
(S'f8'
p4
I0
I1
tp5
Rp6
(I3
S'<'
p7
NNNI-1
I-1
I0
tp8
bS'm\xd6\x825\x01"I@'
p9
tp10
Rp11
sS'n01558993'
p12
g2
(g6
S'\xdb\\\x8d\xf6"\x93H@'
p13
tp14
Rp15
sS'n01530575'
p16
g2
(g6
S'\x9d\xe0g{\x9eoF@'
p17
tp18
Rp19
sS'n03393912'
p20
g2
(g6
S'\xdb\x96P\x11X\xe4G@'
p21
tp22
Rp23
sS'n02056570'
p24
g2
(g6
S'\xc4\xb0\xf5\xb4\x9c{F@'
p25
tp26
Rp27
sS'n01817953'
p28
g2
(g6
S'+\x02\x8e\xc7M\xffE@'
p29
tp30
Rp31
sS'n01784675'
p32
g2
(g6
S'3\x1fWF,)H@'
p33
tp34
Rp35
sS'n02028035'
p36
g2
(g6
S'\xdf\xdff\x1cC?F@'
p37
tp38
Rp39
sS'n03272010'
p40
g2
(g6
S'\xfb\xfd\x07\xc4y2D@'
p41
tp42
Rp43
sS'n02454379'
p44
g2
(g6
S'\x14\x13\xcdN\xac\xecI@'
p45
tp46
Rp47
sS'n02130308'
p48
g2
(g6
S'QY\xfe\x12q\xa2I@'
p49
tp50
Rp51
sS'n02509815'
p52
g2
(g6
S'\xe8\xf8\x1c\x16_\xd4H@'
p53
tp54
Rp55
sS'n04074963'
p56
g2
(g6
S';T/\x7f\xc0,D@'
p57
tp58
Rp59
sS'n02799071'
p60
g2
(g6
S'8G&\xdf9\xefE@'
p61
tp62
Rp63
sS'n07754684'
p64
g2
(g6
S'sb\xf9\xae\xed\x0fJ@'
p65
tp66
Rp67
s.