(dp0
S'n02317335'
p1
cnumpy.core.multiarray
scalar
p2
(cnumpy
dtype
p3
(S'f8'
p4
I0
I1
tp5
Rp6
(I3
S'<'
p7
NNNI-1
I-1
I0
tp8
bS'\xefr\x95\xa5\xa0\xbb7@'
p9
tp10
Rp11
sS'n01558993'
p12
g2
(g6
S'\xbcf\x12a\xb5\xaa7@'
p13
tp14
Rp15
sS'n01530575'
p16
g2
(g6
S'1\xe4s\xeb\xac\x047@'
p17
tp18
Rp19
sS'n03393912'
p20
g2
(g6
S'y\xa8\xe2\x176f7@'
p21
tp22
Rp23
sS'n02056570'
p24
g2
(g6
S']C\xc1%\xac\x986@'
p25
tp26
Rp27
sS'n01817953'
p28
g2
(g6
S'\xed6Z\xff\xabl6@'
p29
tp30
Rp31
sS'n01784675'
p32
g2
(g6
S'<Q\xeaU\xfc\x9c7@'
p33
tp34
Rp35
sS'n02028035'
p36
g2
(g6
S'\x9f\x82\xd7X\x17\xd26@'
p37
tp38
Rp39
sS'n03272010'
p40
g2
(g6
S'\xd8\x90@Bw26@'
p41
tp42
Rp43
sS'n02454379'
p44
g2
(g6
S'\xd8\x0c\x07\xdap\x188@'
p45
tp46
Rp47
sS'n02130308'
p48
g2
(g6
S'!\xb6\xcc\xfc\x10\x0e8@'
p49
tp50
Rp51
sS'n02509815'
p52
g2
(g6
S'\x912<\xe0\xc5.7@'
p53
tp54
Rp55
sS'n04074963'
p56
g2
(g6
S'G\xd1\rP@\\6@'
p57
tp58
Rp59
sS'n02799071'
p60
g2
(g6
S'\x0f3&g\x8d\x816@'
p61
tp62
Rp63
sS'n07754684'
p64
g2
(g6
S'G\x9b\x83!\x95\xb77@'
p65
tp66
Rp67
s.