(dp0
S'n02317335'
p1
cnumpy.core.multiarray
scalar
p2
(cnumpy
dtype
p3
(S'f8'
p4
I0
I1
tp5
Rp6
(I3
S'<'
p7
NNNI-1
I-1
I0
tp8
bS'\xe4\xb9A\x08\x0c\xa5\xd5?'
p9
tp10
Rp11
sS'n01558993'
p12
g2
(g6
S'\xabC\xdd#*\xdd\xe3?'
p13
tp14
Rp15
sS'n03393912'
p16
g2
(g6
S'p\xcaa\xc2lN\xc6?'
p17
tp18
Rp19
sS'n02056570'
p20
g2
(g6
S',h%dP\x81\xd1?'
p21
tp22
Rp23
sS'n02509815'
p24
g2
(g6
S'\xa6\\]\n\xc7(\xd3?'
p25
tp26
Rp27
sS'n01784675'
p28
g2
(g6
S'd\x9c\xbf\xb0\xd0Y\xd5?'
p29
tp30
Rp31
sS'n02028035'
p32
g2
(g6
S'\xfc\xacd\x92\x90`\xd8?'
p33
tp34
Rp35
sS'n04074963'
p36
g2
(g6
S'TS\x11,\xc4\x19\xc6?'
p37
tp38
Rp39
sS'n01530575'
p40
g2
(g6
S'\xe1<\xa6\xe3\x0e\xd8\xe0?'
p41
tp42
Rp43
sS'n02454379'
p44
g2
(g6
S'\xb4\xf0gL\xfe\xad\xd7?'
p45
tp46
Rp47
sS'n02130308'
p48
g2
(g6
S'\xfc\x05\x84\xdcmV\xd4?'
p49
tp50
Rp51
sS'n01817953'
p52
g2
(g6
S'@\x06\x8e\x13\x867\xce?'
p53
tp54
Rp55
sS'n03272010'
p56
g2
(g6
S'T\x9d\xc8\xb0j\x06\xc8?'
p57
tp58
Rp59
sS'n02799071'
p60
g2
(g6
S'\x9c\x9d\xdfO\x1f\n\xc5?'
p61
tp62
Rp63
sS'n07754684'
p64
g2
(g6
S'\xc2#\xd4\xa5rm\xd5?'
p65
tp66
Rp67
s.