(dp0
S'n02317335'
p1
cnumpy.core.multiarray
scalar
p2
(cnumpy
dtype
p3
(S'f8'
p4
I0
I1
tp5
Rp6
(I3
S'<'
p7
NNNI-1
I-1
I0
tp8
bS'\xb1Cv_\xebU7@'
p9
tp10
Rp11
sS'n01558993'
p12
g2
(g6
S'\xa9\xd3\xe1\x92#F7@'
p13
tp14
Rp15
sS'n01530575'
p16
g2
(g6
S'\x89\xd9\xe1g\x94\xaf6@'
p17
tp18
Rp19
sS'n03393912'
p20
g2
(g6
S'\xc1\x1b\xe8\x97H\x087@'
p21
tp22
Rp23
sS'n02056570'
p24
g2
(g6
S'e\xa1\x1dS\xc6N6@'
p25
tp26
Rp27
sS'n01817953'
p28
g2
(g6
S"\xd0W\x92\xfbj'6@"
p29
tp30
Rp31
sS'n01784675'
p32
g2
(g6
S'x\xd6\xeb\xf3q:7@'
p33
tp34
Rp35
sS'n02028035'
p36
g2
(g6
S'\x9dh\xa0\xcc\xcb\x826@'
p37
tp38
Rp39
sS'n03272010'
p40
g2
(g6
S'\x05\xc9\xc0\xd3\x88\xf35@'
p41
tp42
Rp43
sS'n02454379'
p44
g2
(g6
S'}\xf6A\xdb\x8e\xaa7@'
p45
tp46
Rp47
sS'n02130308'
p48
g2
(g6
S'/~8=X\xa07@'
p49
tp50
Rp51
sS'n02509815'
p52
g2
(g6
S'3\x9e\xdf\xd9\xd7\xd66@'
p53
tp54
Rp55
sS'n04074963'
p56
g2
(g6
S"\x0ct'\xb4\xab\x186@"
p57
tp58
Rp59
sS'n02799071'
p60
g2
(g6
S'7\xfdP\xfe1:6@'
p61
tp62
Rp63
sS'n07754684'
p64
g2
(g6
S'\x955\xea\xb3\xaeR7@'
p65
tp66
Rp67
s.