(dp0
S'n02317335'
p1
cnumpy.core.multiarray
scalar
p2
(cnumpy
dtype
p3
(S'f8'
p4
I0
I1
tp5
Rp6
(I3
S'<'
p7
NNNI-1
I-1
I0
tp8
bS'\x85g;\x06\\\xd76@'
p9
tp10
Rp11
sS'n01558993'
p12
g2
(g6
S'\x83\x90\xd2m\x9a\xc96@'
p13
tp14
Rp15
sS'n01530575'
p16
g2
(g6
S"l\xabr\x80'H6@"
p17
tp18
Rp19
sS'n03393912'
p20
g2
(g6
S'\x9bY\x80\x9c\x15\x946@'
p21
tp22
Rp23
sS'n02056570'
p24
g2
(g6
S'\x8f\x03\xfe=\xeb\xf35@'
p25
tp26
Rp27
sS'n01817953'
p28
g2
(g6
S'oA9J\x9b\xd15@'
p29
tp30
Rp31
sS'n01784675'
p32
g2
(g6
S'\xf1\xf7\x868r\xbf6@'
p33
tp34
Rp35
sS'n02028035'
p36
g2
(g6
S'P\x9b\x8b+~ 6@'
p37
tp38
Rp39
sS'n03272010'
p40
g2
(g6
S' \xa7I\x16\xbc\xa45@'
p41
tp42
Rp43
sS'n02454379'
p44
g2
(g6
S'\x80\xdf\\8V\x1f7@'
p45
tp46
Rp47
sS'n02130308'
p48
g2
(g6
S'i\x89\x0f\xb3J\x177@'
p49
tp50
Rp51
sS'n02509815'
p52
g2
(g6
S'\xb9\x92\xbb\x8aLi6@'
p53
tp54
Rp55
sS'n04074963'
p56
g2
(g6
S'\xdd&4o4\xc55@'
p57
tp58
Rp59
sS'n02799071'
p60
g2
(g6
S'\xdch\x07\xa7\x13\xe25@'
p61
tp62
Rp63
sS'n07754684'
p64
g2
(g6
S' \xf3(\xb4\xa8\xd36@'
p65
tp66
Rp67
s.