(dp0
S'n02317335'
p1
cnumpy.core.multiarray
scalar
p2
(cnumpy
dtype
p3
(S'f8'
p4
I0
I1
tp5
Rp6
(I3
S'<'
p7
NNNI-1
I-1
I0
tp8
bS'\x1cif\xbe\xcbX7@'
p9
tp10
Rp11
sS'n01558993'
p12
g2
(g6
S'\xc9\xb2W\xeb\xe7I7@'
p13
tp14
Rp15
sS'n01530575'
p16
g2
(g6
S'\xbc;*<\xcd\xb36@'
p17
tp18
Rp19
sS'n03393912'
p20
g2
(g6
S'\x0b\xc4\x823\xe4\n7@'
p21
tp22
Rp23
sS'n02056570'
p24
g2
(g6
S'\x0c\xb8|a_Q6@'
p25
tp26
Rp27
sS'n01817953'
p28
g2
(g6
S'<\x13L\xa9O)6@'
p29
tp30
Rp31
sS'n01784675'
p32
g2
(g6
S'\xfb~\xcc\xc5g=7@'
p33
tp34
Rp35
sS'n02028035'
p36
g2
(g6
S'\xb8\xaeZ\x17\xf8\x846@'
p37
tp38
Rp39
sS'n03272010'
p40
g2
(g6
S'\x15\xf8\x8b\xe4\xe4\xf45@'
p41
tp42
Rp43
sS'n02454379'
p44
g2
(g6
S'\x8d\xc8\x01D\xf0\xac7@'
p45
tp46
Rp47
sS'n02130308'
p48
g2
(g6
S'!l\x10\xd8)\xa37@'
p49
tp50
Rp51
sS'n02509815'
p52
g2
(g6
S'\xf4][\x8a\xb6\xd96@'
p53
tp54
Rp55
sS'n04074963'
p56
g2
(g6
S'\x01\x85;/x\x1a6@'
p57
tp58
Rp59
sS'n02799071'
p60
g2
(g6
S'\xd9\x82\x8fU\x89<6@'
p61
tp62
Rp63
sS'n07754684'
p64
g2
(g6
S'|\xa79J7U7@'
p65
tp66
Rp67
s.