(dp0
S'n02317335'
p1
cnumpy.core.multiarray
scalar
p2
(cnumpy
dtype
p3
(S'f8'
p4
I0
I1
tp5
Rp6
(I3
S'<'
p7
NNNI-1
I-1
I0
tp8
bS'\xb3$\x0f\x96\x82\xe6\xe4?'
p9
tp10
Rp11
sS'n01558993'
p12
g2
(g6
S'{\x1a\xf69\xee8\xe5?'
p13
tp14
Rp15
sS'n01530575'
p16
g2
(g6
S'\x02\x05td\xec\x8e\xe3?'
p17
tp18
Rp19
sS'n03393912'
p20
g2
(g6
S':\x18Q=7\x8e\xe1?'
p21
tp22
Rp23
sS'n02056570'
p24
g2
(g6
S'E/9\x18\xb6P\xe1?'
p25
tp26
Rp27
sS'n01817953'
p28
g2
(g6
S'\t\xc2*\xf4A\xc3\xe0?'
p29
tp30
Rp31
sS'n01784675'
p32
g2
(g6
S'6Y\x05-\xaa\x97\xe3?'
p33
tp34
Rp35
sS'n02028035'
p36
g2
(g6
S'i\xc88\xc8\x86\xd3\xe1?'
p37
tp38
Rp39
sS'n03272010'
p40
g2
(g6
S'X\xb6 \xa7\t\xe9\xdd?'
p41
tp42
Rp43
sS'n02454379'
p44
g2
(g6
S'=\xc3C/\xa9\xac\xe5?'
p45
tp46
Rp47
sS'n02130308'
p48
g2
(g6
S'F\x9e\x9b\x83\xd3\xbd\xe5?'
p49
tp50
Rp51
sS'n02509815'
p52
g2
(g6
S'6\xc9\xdc\xfc>\xe0\xe5?'
p53
tp54
Rp55
sS'n04074963'
p56
g2
(g6
S'<(\xd7\xc5H\xad\xdd?'
p57
tp58
Rp59
sS'n02799071'
p60
g2
(g6
S'",Eq\x1b1\xe2?'
p61
tp62
Rp63
sS'n07754684'
p64
g2
(g6
S'B\x8b\xec\xb5.S\xe7?'
p65
tp66
Rp67
s.