(dp0
S'n02317335'
p1
cnumpy.core.multiarray
scalar
p2
(cnumpy
dtype
p3
(S'f8'
p4
I0
I1
tp5
Rp6
(I3
S'<'
p7
NNNI-1
I-1
I0
tp8
bS'(\x00\x9d\n\xb2NI@'
p9
tp10
Rp11
sS'n01558993'
p12
g2
(g6
S'\x18*\x11\r\xe9\xc0H@'
p13
tp14
Rp15
sS'n01530575'
p16
g2
(g6
S'0\x17/\x81\xd5\x94F@'
p17
tp18
Rp19
sS'n03393912'
p20
g2
(g6
S'\xf9A]\xedV\x0bH@'
p21
tp22
Rp23
sS'n02056570'
p24
g2
(g6
S'\xc3,\xf7S\xfd\x9dF@'
p25
tp26
Rp27
sS'n01817953'
p28
g2
(g6
S'\x81\xcd\x1b\xefX!F@'
p29
tp30
Rp31
sS'n01784675'
p32
g2
(g6
S'\x7f\xd1\xb9\x94\x95RH@'
p33
tp34
Rp35
sS'n02028035'
p36
g2
(g6
S"'W,!\x18aF@"
p37
tp38
Rp39
sS'n03272010'
p40
g2
(g6
S'z\x91\xe6<\xe8OD@'
p41
tp42
Rp43
sS'n02454379'
p44
g2
(g6
S'\xbb\x8c*c_\x1dJ@'
p45
tp46
Rp47
sS'n02130308'
p48
g2
(g6
S'\xa0\xe8\x02\x17D\xd1I@'
p49
tp50
Rp51
sS'n02509815'
p52
g2
(g6
S'@\x97a\x0e\xa9\x01I@'
p53
tp54
Rp55
sS'n04074963'
p56
g2
(g6
S'[\x10GY\xa8ID@'
p57
tp58
Rp59
sS'n02799071'
p60
g2
(g6
S'\xf51,\xfc\x96\x11F@'
p61
tp62
Rp63
sS'n07754684'
p64
g2
(g6
S'y1\xfcg\xd3DJ@'
p65
tp66
Rp67
s.