(dp0
S'n02317335'
p1
cnumpy.core.multiarray
scalar
p2
(cnumpy
dtype
p3
(S'f8'
p4
I0
I1
tp5
Rp6
(I3
S'<'
p7
NNNI-1
I-1
I0
tp8
bS'C,Q\x16u\x88\xe1?'
p9
tp10
Rp11
sS'n01558993'
p12
g2
(g6
S':\xf8\n\x94\x919\xe1?'
p13
tp14
Rp15
sS'n01530575'
p16
g2
(g6
S'\x92Gg\xbf\xb4^\xe1?'
p17
tp18
Rp19
sS'n03393912'
p20
g2
(g6
S'\xf1\xdbqu\xe9u\xe1?'
p21
tp22
Rp23
sS'n02056570'
p24
g2
(g6
S'\tyn\xdb\xf46\xe1?'
p25
tp26
Rp27
sS'n01817953'
p28
g2
(g6
S'[\n\xe7\xfegq\xe1?'
p29
tp30
Rp31
sS'n01784675'
p32
g2
(g6
S'\xa5$w\xb2\x01l\xe1?'
p33
tp34
Rp35
sS'n02028035'
p36
g2
(g6
S'\x1d@A\x8c\xf01\xe1?'
p37
tp38
Rp39
sS'n03272010'
p40
g2
(g6
S'\xb5T\x91y\x1eh\xe1?'
p41
tp42
Rp43
sS'n02454379'
p44
g2
(g6
S'\xd3J\x0e\xa6\x8aj\xe1?'
p45
tp46
Rp47
sS'n02130308'
p48
g2
(g6
S'\x0f\xee+\xdd\x19@\xe1?'
p49
tp50
Rp51
sS'n02509815'
p52
g2
(g6
S'\xfaP4`\xe7h\xe1?'
p53
tp54
Rp55
sS'n04074963'
p56
g2
(g6
S'\xa0[\x94\xac\x98H\xe1?'
p57
tp58
Rp59
sS'n02799071'
p60
g2
(g6
S'\x10\xf0\xf2\xd4\x88o\xe1?'
p61
tp62
Rp63
sS'n07754684'
p64
g2
(g6
S'\x81b\xaf\xd9eb\xe1?'
p65
tp66
Rp67
s.