(dp0
S'n02317335'
p1
cnumpy.core.multiarray
scalar
p2
(cnumpy
dtype
p3
(S'f8'
p4
I0
I1
tp5
Rp6
(I3
S'<'
p7
NNNI-1
I-1
I0
tp8
bS"B\xd4r'7*\n@"
p9
tp10
Rp11
sS'n01558993'
p12
g2
(g6
S'\r)\xc9I\xa8k\r@'
p13
tp14
Rp15
sS'n01530575'
p16
g2
(g6
S'\x929l\xc9\x19<\x0e@'
p17
tp18
Rp19
sS'n03393912'
p20
g2
(g6
S'\xed\x0e\x0e\xdc\xaf\xc3\r@'
p21
tp22
Rp23
sS'n02056570'
p24
g2
(g6
S'\xc6\xd7*\xcdM\xd7\x0e@'
p25
tp26
Rp27
sS'n01817953'
p28
g2
(g6
S'Ur\x01\xa8\xce?\x0e@'
p29
tp30
Rp31
sS'n01784675'
p32
g2
(g6
S"'\x92\xa8\x99\xc6\x11\t@"
p33
tp34
Rp35
sS'n02028035'
p36
g2
(g6
S'\xfc\xf8K\xa0\x17\xc0\t@'
p37
tp38
Rp39
sS'n03272010'
p40
g2
(g6
S'\xef\x98\xff\xbe\xf0\xd5\x0e@'
p41
tp42
Rp43
sS'n02454379'
p44
g2
(g6
S'B\xdaZ\x94\xb7\xf2\n@'
p45
tp46
Rp47
sS'n02130308'
p48
g2
(g6
S"Q\x1e'\xb1\xc7\xe5\n@"
p49
tp50
Rp51
sS'n02509815'
p52
g2
(g6
S'\x7f\xaa$\xbf\xfa8\x0e@'
p53
tp54
Rp55
sS'n04074963'
p56
g2
(g6
S'\xf2zN\xc3a\xbb\x0e@'
p57
tp58
Rp59
sS'n02799071'
p60
g2
(g6
S'\xe3_\x02\x1b\xa5\xc3\r@'
p61
tp62
Rp63
sS'n07754684'
p64
g2
(g6
S'xz\xae\xa9\xbeS\r@'
p65
tp66
Rp67
s.