(dp0
S'n02317335'
p1
cnumpy.core.multiarray
scalar
p2
(cnumpy
dtype
p3
(S'f8'
p4
I0
I1
tp5
Rp6
(I3
S'<'
p7
NNNI-1
I-1
I0
tp8
bS'\xb1tM\xdf.\xa05@'
p9
tp10
Rp11
sS'n01558993'
p12
g2
(g6
S'\x1b\xff\x96\x16\xed\x9d5@'
p13
tp14
Rp15
sS'n01530575'
p16
g2
(g6
S'\xf9\x08\xac\x05p]5@'
p17
tp18
Rp19
sS'n03393912'
p20
g2
(g6
S'(\xc6\xd0\xd3\x9b\x7f5@'
p21
tp22
Rp23
sS'n02056570'
p24
g2
(g6
S'\x95\xad\xaf\x16\xf9(5@'
p25
tp26
Rp27
sS'n01817953'
p28
g2
(g6
S'c\xa8qnI\x0e5@'
p29
tp30
Rp31
sS'n01784675'
p32
g2
(g6
S'\xdf\xcf\xc9\xde\xc7\x955@'
p33
tp34
Rp35
sS'n02028035'
p36
g2
(g6
S'\xa0\x9b\n\xd8 :5@'
p37
tp38
Rp39
sS'n03272010'
p40
g2
(g6
S'\x989\xf7G\xe4\xf74@'
p41
tp42
Rp43
sS'n02454379'
p44
g2
(g6
S'\xcc\xe5\x12\xb7\xeb\xc35@'
p45
tp46
Rp47
sS'n02130308'
p48
g2
(g6
S'\x87z\x8e\x9a\x90\xc55@'
p49
tp50
Rp51
sS'n02509815'
p52
g2
(g6
S'\x95\x0cx\t\x80g5@'
p53
tp54
Rp55
sS'n04074963'
p56
g2
(g6
S'/\xc0\xe7\xa1\xaa\x145@'
p57
tp58
Rp59
sS'n02799071'
p60
g2
(g6
S'a\x04\x06\xc8\x04\x1a5@'
p61
tp62
Rp63
sS'n07754684'
p64
g2
(g6
S'M`\xd1\x15\xd6\x995@'
p65
tp66
Rp67
s.