(dp0
S'n02317335'
p1
cnumpy.core.multiarray
scalar
p2
(cnumpy
dtype
p3
(S'f8'
p4
I0
I1
tp5
Rp6
(I3
S'<'
p7
NNNI-1
I-1
I0
tp8
bS'h8xI\xcaG\xc4?'
p9
tp10
Rp11
sS'n01558993'
p12
g2
(g6
S'\xf8~5\xfb\x0c>\xb9?'
p13
tp14
Rp15
sS'n03393912'
p16
g2
(g6
S'3\xa7O\xf6\x8e\xd6\xe2?'
p17
tp18
Rp19
sS'n02056570'
p20
g2
(g6
S'p\x95\xedp\x13\x90\xc1?'
p21
tp22
Rp23
sS'n02509815'
p24
g2
(g6
S'<R\xed\xde\xedt\xc4?'
p25
tp26
Rp27
sS'n01784675'
p28
g2
(g6
S'\xd0\xb0,>t\x00\xca?'
p29
tp30
Rp31
sS'n02028035'
p32
g2
(g6
S'\x10xz\xc2\x83#\xb4?'
p33
tp34
Rp35
sS'n04074963'
p36
g2
(g6
S'dOG\xd5^\xef\xd0?'
p37
tp38
Rp39
sS'n01530575'
p40
g2
(g6
S'@75;G\r\xb8?'
p41
tp42
Rp43
sS'n02454379'
p44
g2
(g6
S'\xc4K\xe4\x93R\xc8\xce?'
p45
tp46
Rp47
sS'n02130308'
p48
g2
(g6
S'p\xd8\xed\xb8#\xd4\xbf?'
p49
tp50
Rp51
sS'n01817953'
p52
g2
(g6
S'\x14\x83\xee\xae\x19&\xcb?'
p53
tp54
Rp55
sS'n03272010'
p56
g2
(g6
S'\\\xa1\xd8\x9f ;\xc2?'
p57
tp58
Rp59
sS'n02799071'
p60
g2
(g6
S'82\xc0\xdfS\xf8\xd0?'
p61
tp62
Rp63
sS'n07754684'
p64
g2
(g6
S'<\xeb\x9c\xa2.\xd4\xc4?'
p65
tp66
Rp67
s.