(dp0
S'n02317335'
p1
cnumpy.core.multiarray
scalar
p2
(cnumpy
dtype
p3
(S'f8'
p4
I0
I1
tp5
Rp6
(I3
S'<'
p7
NNNI-1
I-1
I0
tp8
bS'\xbf\r\xc7\xe7\xf9]\x07@'
p9
tp10
Rp11
sS'n01558993'
p12
g2
(g6
S'\xf0#\xfe6\x8b\xc9\t@'
p13
tp14
Rp15
sS'n01530575'
p16
g2
(g6
S'\xc0\xb3o\r\x02z\t@'
p17
tp18
Rp19
sS'n03393912'
p20
g2
(g6
S'lT-b\xca\x0f\r@'
p21
tp22
Rp23
sS'n02056570'
p24
g2
(g6
S'\xee\xa4\x05\xfd`\x84\n@'
p25
tp26
Rp27
sS'n01817953'
p28
g2
(g6
S'_Vu\tn}\n@'
p29
tp30
Rp31
sS'n01784675'
p32
g2
(g6
S'\xee\xbfy\x96\x14=\x06@'
p33
tp34
Rp35
sS'n02028035'
p36
g2
(g6
S'\xfc\x93\x19\x08Zi\x07@'
p37
tp38
Rp39
sS'n03272010'
p40
g2
(g6
S'\tG"Y\xf9\x83\x0b@'
p41
tp42
Rp43
sS'n02454379'
p44
g2
(g6
S'\xe9)e\xfc\xba(\x07@'
p45
tp46
Rp47
sS'n02130308'
p48
g2
(g6
S'\x00=\xb0\xef\xe3\xb1\x06@'
p49
tp50
Rp51
sS'n02509815'
p52
g2
(g6
S'>_\xad\xf9{\xa4\n@'
p53
tp54
Rp55
sS'n04074963'
p56
g2
(g6
S'O\xe0\\F">\n@'
p57
tp58
Rp59
sS'n02799071'
p60
g2
(g6
S'\x85\xb5\x0f+\x05t\x0b@'
p61
tp62
Rp63
sS'n07754684'
p64
g2
(g6
S'\xcb/M=GL\n@'
p65
tp66
Rp67
s.