(dp0
S'n02317335'
p1
cnumpy.core.multiarray
scalar
p2
(cnumpy
dtype
p3
(S'f8'
p4
I0
I1
tp5
Rp6
(I3
S'<'
p7
NNNI-1
I-1
I0
tp8
bS'w\xa0t|e\xc2\x03@'
p9
tp10
Rp11
sS'n01558993'
p12
g2
(g6
S'O\xe5\xed#\xb5s\x04@'
p13
tp14
Rp15
sS'n01530575'
p16
g2
(g6
S'\xdc\xe9\xcfp7\x7f\x02@'
p17
tp18
Rp19
sS'n03393912'
p20
g2
(g6
S'~\xd6`~\x97\xe2\x02@'
p21
tp22
Rp23
sS'n02056570'
p24
g2
(g6
S'I\x99\xfe\xaf\xf5\xca\x01@'
p25
tp26
Rp27
sS'n01817953'
p28
g2
(g6
S'\xa1\xd3\xf3\x98\x17\xc8\x01@'
p29
tp30
Rp31
sS'n01784675'
p32
g2
(g6
S'\xf3\xdc>\xac\xcb\x8b\x02@'
p33
tp34
Rp35
sS'n02028035'
p36
g2
(g6
S'fh=\x8e\xdd\x0e\x01@'
p37
tp38
Rp39
sS'n03272010'
p40
g2
(g6
S'\\\x95\xec\xe2\xb7\xb6\x00@'
p41
tp42
Rp43
sS'n02454379'
p44
g2
(g6
S'\xbb\x7fT\x16M\xfd\x04@'
p45
tp46
Rp47
sS'n02130308'
p48
g2
(g6
S'A\twRt^\x04@'
p49
tp50
Rp51
sS'n02509815'
p52
g2
(g6
S'E\xe4n]\x8c\xa9\x04@'
p53
tp54
Rp55
sS'n04074963'
p56
g2
(g6
S'cy*h\xa4\xbc\xff?'
p57
tp58
Rp59
sS'n02799071'
p60
g2
(g6
S'4\x00~#xp\x02@'
p61
tp62
Rp63
sS'n07754684'
p64
g2
(g6
S'\xd0\x1cXw$_\x06@'
p65
tp66
Rp67
s.