(dp0
S'n02317335'
p1
cnumpy.core.multiarray
scalar
p2
(cnumpy
dtype
p3
(S'f8'
p4
I0
I1
tp5
Rp6
(I3
S'<'
p7
NNNI-1
I-1
I0
tp8
bS'\r\xd1\x92E<n\xc4?'
p9
tp10
Rp11
sS'n01558993'
p12
g2
(g6
S'y6Of\x1eW\xc1?'
p13
tp14
Rp15
sS'n01530575'
p16
g2
(g6
S',.\xe6Y\x9a\x9a\xc3?'
p17
tp18
Rp19
sS'n03393912'
p20
g2
(g6
S'\x00\x9f\xb8;Yo\xc5?'
p21
tp22
Rp23
sS'n02056570'
p24
g2
(g6
S'\x0b \x19\x19\x8cA\xc1?'
p25
tp26
Rp27
sS'n01817953'
p28
g2
(g6
S'~F>+\xca\xf6\xc9?'
p29
tp30
Rp31
sS'n01784675'
p32
g2
(g6
S'=j\xf9\x8d[\xc6\xc4?'
p33
tp34
Rp35
sS'n02028035'
p36
g2
(g6
S'\xfb\xa21\x99\xa3\x0c\xc2?'
p37
tp38
Rp39
sS'n03272010'
p40
g2
(g6
S'Y\x0b\x12\xf3\x7f\xe0\xc4?'
p41
tp42
Rp43
sS'n02454379'
p44
g2
(g6
S'\xb9f#\xd4\x1d\x00\xc7?'
p45
tp46
Rp47
sS'n02130308'
p48
g2
(g6
S'\xd2\xbc\\)\xba\xa7\xc1?'
p49
tp50
Rp51
sS'n02509815'
p52
g2
(g6
S'1g\xec#\x1f\x7f\xc5?'
p53
tp54
Rp55
sS'n04074963'
p56
g2
(g6
S'\xee:\xb5\xdeC\xb4\xc3?'
p57
tp58
Rp59
sS'n02799071'
p60
g2
(g6
S'WwJ\x1f\xd3\x06\xc6?'
p61
tp62
Rp63
sS'n07754684'
p64
g2
(g6
S'{^\x9f\xf0\x98\xf1\xc2?'
p65
tp66
Rp67
s.