(dp0
S'n02317335'
p1
cnumpy.core.multiarray
scalar
p2
(cnumpy
dtype
p3
(S'f8'
p4
I0
I1
tp5
Rp6
(I3
S'<'
p7
NNNI-1
I-1
I0
tp8
bS'w\xff\x93\xea\xbb\xc85@'
p9
tp10
Rp11
sS'n01558993'
p12
g2
(g6
S'\xe1T\x85\xa3I\xc65@'
p13
tp14
Rp15
sS'n01530575'
p16
g2
(g6
S'!s\xfcTO|5@'
p17
tp18
Rp19
sS'n03393912'
p20
g2
(g6
S'\xe8\xab\x7f\xf5\xab\xab5@'
p21
tp22
Rp23
sS'n02056570'
p24
g2
(g6
S'=u\xa5\xf1RD5@'
p25
tp26
Rp27
sS'n01817953'
p28
g2
(g6
S'\x17\xc8\xc5\x7f\xac(5@'
p29
tp30
Rp31
sS'n01784675'
p32
g2
(g6
S'5\xb3iW\xf9\xb85@'
p33
tp34
Rp35
sS'n02028035'
p36
g2
(g6
S') \xe8c\x02]5@'
p37
tp38
Rp39
sS'n03272010'
p40
g2
(g6
S'\t\xc6!:\x10\x125@'
p41
tp42
Rp43
sS'n02454379'
p44
g2
(g6
S'k\x8d8"\xbf\xf25@'
p45
tp46
Rp47
sS'n02130308'
p48
g2
(g6
S'\x14.\xd4\x1c\xa8\xed5@'
p49
tp50
Rp51
sS'n02509815'
p52
g2
(g6
S'\x18\x06\x87\xb67\x8a5@'
p53
tp54
Rp55
sS'n04074963'
p56
g2
(g6
S'\x82k$\xf91)5@'
p57
tp58
Rp59
sS'n02799071'
p60
g2
(g6
S'\x82r42\x8345@'
p61
tp62
Rp63
sS'n07754684'
p64
g2
(g6
S'\xab\xf6\xe8\xf1x\xc85@'
p65
tp66
Rp67
s.