(dp0
S'n02317335'
p1
cnumpy.core.multiarray
scalar
p2
(cnumpy
dtype
p3
(S'f8'
p4
I0
I1
tp5
Rp6
(I3
S'<'
p7
NNNI-1
I-1
I0
tp8
bS'\x10h\x99\x863LF@'
p9
tp10
Rp11
sS'n01558993'
p12
g2
(g6
S'\xaf\x1f\xaa\xa8\xe7\x1dF@'
p13
tp14
Rp15
sS'n01530575'
p16
g2
(g6
S'C\xed\xdf&\xcb\x89D@'
p17
tp18
Rp19
sS'n03393912'
p20
g2
(g6
S'\xdd\x0c\x1f\xb4[\xa4E@'
p21
tp22
Rp23
sS'n02056570'
p24
g2
(g6
S'M\xee\xca\x97\x92\x97D@'
p25
tp26
Rp27
sS'n01817953'
p28
g2
(g6
S'\xaf\xb4\x1cf\xcd&D@'
p29
tp30
Rp31
sS'n01784675'
p32
g2
(g6
S'\xa8Ok#x\x87E@'
p33
tp34
Rp35
sS'n02028035'
p36
g2
(g6
S'\xee\xc4+\x87\x7fqD@'
p37
tp38
Rp39
sS'n03272010'
p40
g2
(g6
S'm3\xf5N\xe5\xccB@'
p41
tp42
Rp43
sS'n02454379'
p44
g2
(g6
S'\xaf\xe60\xd6O\xf1F@'
p45
tp46
Rp47
sS'n02130308'
p48
g2
(g6
S'\x1bF\x84\xd4\x15\xb6F@'
p49
tp50
Rp51
sS'n02509815'
p52
g2
(g6
S'/\xa8\xff\nYKF@'
p53
tp54
Rp55
sS'n04074963'
p56
g2
(g6
S'\x0bx\xddB\xbb\xd6B@'
p57
tp58
Rp59
sS'n02799071'
p60
g2
(g6
S'\xc3\\|\x1cO\x18D@'
p61
tp62
Rp63
sS'n07754684'
p64
g2
(g6
S' \xd6\xab\x10\x83\x1eG@'
p65
tp66
Rp67
s.