(dp0
S'n02317335'
p1
cnumpy.core.multiarray
scalar
p2
(cnumpy
dtype
p3
(S'f8'
p4
I0
I1
tp5
Rp6
(I3
S'<'
p7
NNNI-1
I-1
I0
tp8
bS'\xc3gw\xb7\xd9\x0c7@'
p9
tp10
Rp11
sS'n01558993'
p12
g2
(g6
S'\x18H\xc7\\,\x007@'
p13
tp14
Rp15
sS'n01530575'
p16
g2
(g6
S'\xaf,\x80ERv6@'
p17
tp18
Rp19
sS'n03393912'
p20
g2
(g6
S'\x9dS\x88\xfd\x9f\xc66@'
p21
tp22
Rp23
sS'n02056570'
p24
g2
(g6
S'\xc3\xb9\xecLv\x1a6@'
p25
tp26
Rp27
sS'n01817953'
p28
g2
(g6
S"\xd7\x157'-\xf75@"
p29
tp30
Rp31
sS'n01784675'
p32
g2
(g6
S'=\x84N\xa8\xfd\xf36@'
p33
tp34
Rp35
sS'n02028035'
p36
g2
(g6
S'#\x9b>\xfb\x9fK6@'
p37
tp38
Rp39
sS'n03272010'
p40
g2
(g6
S'w\x94\xe9~\x1d\xc75@'
p41
tp42
Rp43
sS'n02454379'
p44
g2
(g6
S'\x1d}\x7f\x13%[7@'
p45
tp46
Rp47
sS'n02130308'
p48
g2
(g6
S'\xfb\xc4\xb6k\xa8R7@'
p49
tp50
Rp51
sS'n02509815'
p52
g2
(g6
S'\x7f\x18\xa4ER\x976@'
p53
tp54
Rp55
sS'n04074963'
p56
g2
(g6
S'\xf1\xf2\xfa\x7f\x0b\xe95@'
p57
tp58
Rp59
sS'n02799071'
p60
g2
(g6
S'\x03\xfcO8)\x086@'
p61
tp62
Rp63
sS'n07754684'
p64
g2
(g6
S's\xc4\x81\x88w\x087@'
p65
tp66
Rp67
s.