(dp0
S'n02317335'
p1
cnumpy.core.multiarray
scalar
p2
(cnumpy
dtype
p3
(S'f8'
p4
I0
I1
tp5
Rp6
(I3
S'<'
p7
NNNI-1
I-1
I0
tp8
bS'\xc97\xcbi\x08{I@'
p9
tp10
Rp11
sS'n01558993'
p12
g2
(g6
S'\xa1du\xb8\xf3\xe5H@'
p13
tp14
Rp15
sS'n01530575'
p16
g2
(g6
S'\x0c\\\xb3=^\xb6F@'
p17
tp18
Rp19
sS'n03393912'
p20
g2
(g6
S'$\\\xd3\x0bP5H@'
p21
tp22
Rp23
sS'n02056570'
p24
g2
(g6
S'\x01\x1eZ\x97\xa3\xc1F@'
p25
tp26
Rp27
sS'n01817953'
p28
g2
(g6
S'E\x1a\xaa;\x89EF@'
p29
tp30
Rp31
sS'n01784675'
p32
g2
(g6
S'\xbcs\xf4\xd2\x93~H@'
p33
tp34
Rp35
sS'n02028035'
p36
g2
(g6
S'\xb4\xb8\xa5\xabr\x84F@'
p37
tp38
Rp39
sS'n03272010'
p40
g2
(g6
S'\x01\xef\x18{\x97pD@'
p41
tp42
Rp43
sS'n02454379'
p44
g2
(g6
S'\xdfP\xa0\x9a\xcaKJ@'
p45
tp46
Rp47
sS'n02130308'
p48
g2
(g6
S'\x8d\xc4\xbd\x19\xbd\xfeI@'
p49
tp50
Rp51
sS'n02509815'
p52
g2
(g6
S'\x9b\x12\xca\xc0\xae)I@'
p53
tp54
Rp55
sS'n04074963'
p56
g2
(g6
S'\xeb\x9cl\xe2\x07iD@'
p57
tp58
Rp59
sS'n02799071'
p60
g2
(g6
S'\x94h\xbcB\x074F@'
p61
tp62
Rp63
sS'n07754684'
p64
g2
(g6
S'\xd8\\\x08\xea\xdekJ@'
p65
tp66
Rp67
s.