(dp0
S'n02317335'
p1
cnumpy.core.multiarray
scalar
p2
(cnumpy
dtype
p3
(S'f8'
p4
I0
I1
tp5
Rp6
(I3
S'<'
p7
NNNI-1
I-1
I0
tp8
bS'\x11\xc2or\x04\x82A@'
p9
tp10
Rp11
sS'n01558993'
p12
g2
(g6
S'\xa0^)\x18\x8aTA@'
p13
tp14
Rp15
sS'n01530575'
p16
g2
(g6
S'\xeb\xe0 <#x@@'
p17
tp18
Rp19
sS'n03393912'
p20
g2
(g6
S'Q\xa6\x16\xe7\xd8\xe0@@'
p21
tp22
Rp23
sS'n02056570'
p24
g2
(g6
S'Oy\xd5\xff\x90\x93@@'
p25
tp26
Rp27
sS'n01817953'
p28
g2
(g6
S'\x95\xa3{\x13TM@@'
p29
tp30
Rp31
sS'n01784675'
p32
g2
(g6
S'\xfdY\xf4z8\x1aA@'
p33
tp34
Rp35
sS'n02028035'
p36
g2
(g6
S'.K\xc3\xb3\xab=@@'
p37
tp38
Rp39
sS'n03272010'
p40
g2
(g6
S'|\x11\x89\xa2\xa4b?@'
p41
tp42
Rp43
sS'n02454379'
p44
g2
(g6
S'\x1d\x94[\xc6\xe2\xccA@'
p45
tp46
Rp47
sS'n02130308'
p48
g2
(g6
S'\x92$\x8bqR\x9bA@'
p49
tp50
Rp51
sS'n02509815'
p52
g2
(g6
S'\xebEHx\xa8yA@'
p53
tp54
Rp55
sS'n04074963'
p56
g2
(g6
S'\xa5\xfb\x8e\xc7\x98m?@'
p57
tp58
Rp59
sS'n02799071'
p60
g2
(g6
S'\xc3\x9d\xe9.j?@@'
p61
tp62
Rp63
sS'n07754684'
p64
g2
(g6
S'U\xecT>\xeb\xc2A@'
p65
tp66
Rp67
s.