(dp0
S'n02317335'
p1
cnumpy.core.multiarray
scalar
p2
(cnumpy
dtype
p3
(S'f8'
p4
I0
I1
tp5
Rp6
(I3
S'<'
p7
NNNI-1
I-1
I0
tp8
bS'\xd5=\x89\xf6w\x1c5@'
p9
tp10
Rp11
sS'n01558993'
p12
g2
(g6
S'te\xa9\xfak\x185@'
p13
tp14
Rp15
sS'n01530575'
p16
g2
(g6
S'[\xa3%\xe1\xaf\xe64@'
p17
tp18
Rp19
sS'n03393912'
p20
g2
(g6
S'\x8e\x8e:\xf7-\xf94@'
p21
tp22
Rp23
sS'n02056570'
p24
g2
(g6
S'\x1e,e\x07\xa3\xcd4@'
p25
tp26
Rp27
sS'n01817953'
p28
g2
(g6
S'\xfd\xf5\x06\xf8\x19\xb54@'
p29
tp30
Rp31
sS'n01784675'
p32
g2
(g6
S'\xb7\xa05TP\x115@'
p33
tp34
Rp35
sS'n02028035'
p36
g2
(g6
S'\x9d\x92\xa4w\x94\xc74@'
p37
tp38
Rp39
sS'n03272010'
p40
g2
(g6
S'\xd9\x95\x82\x91\x07\xa64@'
p41
tp42
Rp43
sS'n02454379'
p44
g2
(g6
S'#\x07\xbb\xaa\xb645@'
p45
tp46
Rp47
sS'n02130308'
p48
g2
(g6
S'71\xa8x\r35@'
p49
tp50
Rp51
sS'n02509815'
p52
g2
(g6
S'\x92:\xf5FD\xf64@'
p53
tp54
Rp55
sS'n04074963'
p56
g2
(g6
S'\xb9\xe2}\xc7\x12\xb94@'
p57
tp58
Rp59
sS'n02799071'
p60
g2
(g6
S'\x10\xe5\xf2V-\xbb4@'
p61
tp62
Rp63
sS'n07754684'
p64
g2
(g6
S'\x07:\x9bY\xdf\x185@'
p65
tp66
Rp67
s.