(dp0
S'n02317335'
p1
cnumpy.core.multiarray
scalar
p2
(cnumpy
dtype
p3
(S'f8'
p4
I0
I1
tp5
Rp6
(I3
S'<'
p7
NNNI-1
I-1
I0
tp8
bS'\x1f\x9d\x80\xe44\x19I@'
p9
tp10
Rp11
sS'n01558993'
p12
g2
(g6
S'd.\xc6a\xc4\x8aH@'
p13
tp14
Rp15
sS'n01530575'
p16
g2
(g6
S'\xf1a^\x95cfF@'
p17
tp18
Rp19
sS'n03393912'
p20
g2
(g6
S'\xe8\xb2\xf6+\x1c\xdeG@'
p21
tp22
Rp23
sS'n02056570'
p24
g2
(g6
S'W~\x15\x99\xc8qF@'
p25
tp26
Rp27
sS'n01817953'
p28
g2
(g6
S'?\x95\xd8?!\xf8E@'
p29
tp30
Rp31
sS'n01784675'
p32
g2
(g6
S'|\xa5\xbc\x90H"H@'
p33
tp34
Rp35
sS'n02028035'
p36
g2
(g6
S'7\xd2\xbc\xbb\x064F@'
p37
tp38
Rp39
sS'n03272010'
p40
g2
(g6
S'\xc2\xd1\xaf:3,D@'
p41
tp42
Rp43
sS'n02454379'
p44
g2
(g6
S'`\xd5\xc0\xd1\x8b\xe7I@'
p45
tp46
Rp47
sS'n02130308'
p48
g2
(g6
S'?\x93+x\xc6\x9cI@'
p49
tp50
Rp51
sS'n02509815'
p52
g2
(g6
S'\x8f\xa2W\xec\x99\xccH@'
p53
tp54
Rp55
sS'n04074963'
p56
g2
(g6
S'\xa9d\xd1\x17\\&D@'
p57
tp58
Rp59
sS'n02799071'
p60
g2
(g6
S'\r\x93\x1c\xaa\x99\xe6E@'
p61
tp62
Rp63
sS'n07754684'
p64
g2
(g6
S'\xef\xad\xdb\xd5\xb1\x08J@'
p65
tp66
Rp67
s.