(dp0
S'n02317335'
p1
cnumpy.core.multiarray
scalar
p2
(cnumpy
dtype
p3
(S'f8'
p4
I0
I1
tp5
Rp6
(I3
S'<'
p7
NNNI-1
I-1
I0
tp8
bS'\x1c\xaa\x82\x1b\xf6PI@'
p9
tp10
Rp11
sS'n01558993'
p12
g2
(g6
S'\xcc6\xfd\xb5K\xbdH@'
p13
tp14
Rp15
sS'n01530575'
p16
g2
(g6
S'\xcbvx\x97I\x92F@'
p17
tp18
Rp19
sS'n03393912'
p20
g2
(g6
S'i]\xd0I\x12\x12H@'
p21
tp22
Rp23
sS'n02056570'
p24
g2
(g6
S'\xa8\xad_\xc5\xc0\x9eF@'
p25
tp26
Rp27
sS'n01817953'
p28
g2
(g6
S'=N\xf4\xbf\x1a#F@'
p29
tp30
Rp31
sS'n01784675'
p32
g2
(g6
S'h\x95h0qUH@'
p33
tp34
Rp35
sS'n02028035'
p36
g2
(g6
S'\xd0\x9c\xa7\x85@aF@'
p37
tp38
Rp39
sS'n03272010'
p40
g2
(g6
S'\x02\xe6\xbcr\x98SD@'
p41
tp42
Rp43
sS'n02454379'
p44
g2
(g6
S'?\xf7 \x7f\x97\x1fJ@'
p45
tp46
Rp47
sS'n02130308'
p48
g2
(g6
S'#:~P\x15\xd2I@'
p49
tp50
Rp51
sS'n02509815'
p52
g2
(g6
S'?\x1c\x0b\x9dB\x01I@'
p53
tp54
Rp55
sS'n04074963'
p56
g2
(g6
S'a$\xa70\x02KD@'
p57
tp58
Rp59
sS'n02799071'
p60
g2
(g6
S'\xa7\xc5\xd64\x03\x13F@'
p61
tp62
Rp63
sS'n07754684'
p64
g2
(g6
S'\xb4[\xd58\x1c?J@'
p65
tp66
Rp67
s.