(dp0
S'n02317335'
p1
cnumpy.core.multiarray
scalar
p2
(cnumpy
dtype
p3
(S'f8'
p4
I0
I1
tp5
Rp6
(I3
S'<'
p7
NNNI-1
I-1
I0
tp8
bS'^\xad7)\x96\xf6\xb4?'
p9
tp10
Rp11
sS'n01558993'
p12
g2
(g6
S'\xe2\xe4\xa6%u\xcd\xb1?'
p13
tp14
Rp15
sS'n01530575'
p16
g2
(g6
S".>\xd1c'\xd9\xb3?"
p17
tp18
Rp19
sS'n03393912'
p20
g2
(g6
S'8\x1bv\x10\x93\xd6\xb0?'
p21
tp22
Rp23
sS'n02056570'
p24
g2
(g6
S'y\xfce\x8e\xf8\xbd\xaa?'
p25
tp26
Rp27
sS'n01817953'
p28
g2
(g6
S'V\xbf$\xed@\x11\xb1?'
p29
tp30
Rp31
sS'n01784675'
p32
g2
(g6
S'k\xcd\xbd\xcaqB\xb4?'
p33
tp34
Rp35
sS'n02028035'
p36
g2
(g6
S'.*\xc9\x13\x8e\xc0\xb1?'
p37
tp38
Rp39
sS'n03272010'
p40
g2
(g6
S'\xf1\xe8{b$\xe6\xaf?'
p41
tp42
Rp43
sS'n02454379'
p44
g2
(g6
S'\x06\x17\xc4\x9f-\xbd\xb4?'
p45
tp46
Rp47
sS'n02130308'
p48
g2
(g6
S'\x0eO\x8c\xa7\xea\xf1\xb6?'
p49
tp50
Rp51
sS'n02509815'
p52
g2
(g6
S'\xc3\xa8z\x9aE\xe4\xb4?'
p53
tp54
Rp55
sS'n04074963'
p56
g2
(g6
S'lu\xab\xfc=D\xad?'
p57
tp58
Rp59
sS'n02799071'
p60
g2
(g6
S'\xabjyO\xba\x86\xae?'
p61
tp62
Rp63
sS'n07754684'
p64
g2
(g6
S'#h*w\xb5\x84\xb2?'
p65
tp66
Rp67
s.