(dp0
S'n02317335'
p1
cnumpy.core.multiarray
scalar
p2
(cnumpy
dtype
p3
(S'f8'
p4
I0
I1
tp5
Rp6
(I3
S'<'
p7
NNNI-1
I-1
I0
tp8
bS'h\xab\xf2\xab\xfc\xfaH@'
p9
tp10
Rp11
sS'n01558993'
p12
g2
(g6
S'\x9b\xcd\x90\x14AiH@'
p13
tp14
Rp15
sS'n01530575'
p16
g2
(g6
S']\xbff:\xb1IF@'
p17
tp18
Rp19
sS'n03393912'
p20
g2
(g6
S'\xf4%\xaf\xf2\xf3\xc1G@'
p21
tp22
Rp23
sS'n02056570'
p24
g2
(g6
S'h\xec\x83\xce\x9aXF@'
p25
tp26
Rp27
sS'n01817953'
p28
g2
(g6
S'[\x0f)rt\xdeE@'
p29
tp30
Rp31
sS'n01784675'
p32
g2
(g6
S'\xa5\xa3\xf5ni\x05H@'
p33
tp34
Rp35
sS'n02028035'
p36
g2
(g6
S'/_\xbf\xb3z\x1cF@'
p37
tp38
Rp39
sS'n03272010'
p40
g2
(g6
S'\xcbn\x83\xfb\xf6\x16D@'
p41
tp42
Rp43
sS'n02454379'
p44
g2
(g6
S'\xd1#&Y\xf1\xc6I@'
p45
tp46
Rp47
sS'n02130308'
p48
g2
(g6
S'\xd7,q\xc2\xdczI@'
p49
tp50
Rp51
sS'n02509815'
p52
g2
(g6
S'w\xc8]\x16\xdd\xacH@'
p53
tp54
Rp55
sS'n04074963'
p56
g2
(g6
S'\xdb\x90\x01\x1a\xa2\x0eD@'
p57
tp58
Rp59
sS'n02799071'
p60
g2
(g6
S'\x04\x9e\x05\x94e\xceE@'
p61
tp62
Rp63
sS'n07754684'
p64
g2
(g6
S'\xf9\x05T\xed)\xe7I@'
p65
tp66
Rp67
s.