(dp0
S'n02317335'
p1
cnumpy.core.multiarray
scalar
p2
(cnumpy
dtype
p3
(S'f8'
p4
I0
I1
tp5
Rp6
(I3
S'<'
p7
NNNI-1
I-1
I0
tp8
bS'\x95\xb8\x80\x05\xce\x9f5@'
p9
tp10
Rp11
sS'n01558993'
p12
g2
(g6
S'8\xea\x04\xc0\x87\x9f5@'
p13
tp14
Rp15
sS'n01530575'
p16
g2
(g6
S'\x7fCa\xf5\xb3]5@'
p17
tp18
Rp19
sS'n03393912'
p20
g2
(g6
S'\xfcf}\xf0\xe4{5@'
p21
tp22
Rp23
sS'n02056570'
p24
g2
(g6
S'[6V\xe6Q55@'
p25
tp26
Rp27
sS'n01817953'
p28
g2
(g6
S'\x83\xc6+>\xd4\x155@'
p29
tp30
Rp31
sS'n01784675'
p32
g2
(g6
S'\x80_\xf3\x93\xb0\x915@'
p33
tp34
Rp35
sS'n02028035'
p36
g2
(g6
S'\xf3\x10\xf0\x9b\xc255@'
p37
tp38
Rp39
sS'n03272010'
p40
g2
(g6
S'\xad\x81"\xf2\xac\x005@'
p41
tp42
Rp43
sS'n02454379'
p44
g2
(g6
S'\xd0\xec,\xe8\n\xc65@'
p45
tp46
Rp47
sS'n02130308'
p48
g2
(g6
S'\x9c\x16\x81\xdc{\xc15@'
p49
tp50
Rp51
sS'n02509815'
p52
g2
(g6
S'\x1c\x1c\xf1t\xdcm5@'
p53
tp54
Rp55
sS'n04074963'
p56
g2
(g6
S'1\x1c\xb3\x14\x99\x165@'
p57
tp58
Rp59
sS'n02799071'
p60
g2
(g6
S'e\xab.\x81\xcc\x1c5@'
p61
tp62
Rp63
sS'n07754684'
p64
g2
(g6
S'\xfdn\x82\xd3\x00\x9f5@'
p65
tp66
Rp67
s.