(dp0
S'n02317335'
p1
cnumpy.core.multiarray
scalar
p2
(cnumpy
dtype
p3
(S'f8'
p4
I0
I1
tp5
Rp6
(I3
S'<'
p7
NNNI-1
I-1
I0
tp8
bS'D\x8c\x92\x1bJtC@'
p9
tp10
Rp11
sS'n01558993'
p12
g2
(g6
S'w8jPT&C@'
p13
tp14
Rp15
sS'n01530575'
p16
g2
(g6
S'Y\xf3UW\xa5\xf7A@'
p17
tp18
Rp19
sS'n03393912'
p20
g2
(g6
S'\xb3k\xca\x01K\xd5B@'
p21
tp22
Rp23
sS'n02056570'
p24
g2
(g6
S'\x00\x13\xcf\x80W\tB@'
p25
tp26
Rp27
sS'n01817953'
p28
g2
(g6
S'a.\x8e\x1a\xec\xb8A@'
p29
tp30
Rp31
sS'n01784675'
p32
g2
(g6
S'Y\x1d4\x028\xe3B@'
p33
tp34
Rp35
sS'n02028035'
p36
g2
(g6
S'\xbd\xc5\xe5a\x8e\xb7A@'
p37
tp38
Rp39
sS'n03272010'
p40
g2
(g6
S'\xc3?\xbd\xbe\xd0\xd6@@'
p41
tp42
Rp43
sS'n02454379'
p44
g2
(g6
S'\x9fw\x17\t\xf7\xe0C@'
p45
tp46
Rp47
sS'n02130308'
p48
g2
(g6
S'\x0f\x80\xb2\x84#\xb1C@'
p49
tp50
Rp51
sS'n02509815'
p52
g2
(g6
S'd\xa1\xa5D\t]C@'
p53
tp54
Rp55
sS'n04074963'
p56
g2
(g6
S'#7\xa2f\xb4\xc3@@'
p57
tp58
Rp59
sS'n02799071'
p60
g2
(g6
S"\xae\xc4\x9d'0\xb6A@"
p61
tp62
Rp63
sS'n07754684'
p64
g2
(g6
S'\xdd\x16\x8a\x0fY\xe2C@'
p65
tp66
Rp67
s.