(dp0
S'n02317335'
p1
cnumpy.core.multiarray
scalar
p2
(cnumpy
dtype
p3
(S'f8'
p4
I0
I1
tp5
Rp6
(I3
S'<'
p7
NNNI-1
I-1
I0
tp8
bS'\xc4Y\xfb3`C7@'
p9
tp10
Rp11
sS'n01558993'
p12
g2
(g6
S'T\xb8c\xcf\xf947@'
p13
tp14
Rp15
sS'n01530575'
p16
g2
(g6
S'sC\xe3x\x00\xa16@'
p17
tp18
Rp19
sS'n03393912'
p20
g2
(g6
S'\tEK\x93\r\xf86@'
p21
tp22
Rp23
sS'n02056570'
p24
g2
(g6
S'\xf1\xfe\xd1\xc7gA6@'
p25
tp26
Rp27
sS'n01817953'
p28
g2
(g6
S'\xcdh5E\x90\x1a6@'
p29
tp30
Rp31
sS'n01784675'
p32
g2
(g6
S"\x1b\xc5\n^\x87'7@"
p33
tp34
Rp35
sS'n02028035'
p36
g2
(g6
S'e\xc4^"\xabr6@'
p37
tp38
Rp39
sS'n03272010'
p40
g2
(g6
S'q\x93\xc7m2\xe85@'
p41
tp42
Rp43
sS'n02454379'
p44
g2
(g6
S'K$\x059\x08\x977@'
p45
tp46
Rp47
sS'n02130308'
p48
g2
(g6
S'\x13\x04\x96\x86k\x8a7@'
p49
tp50
Rp51
sS'n02509815'
p52
g2
(g6
S'!=\x13\xab\xe2\xc76@'
p53
tp54
Rp55
sS'n04074963'
p56
g2
(g6
S'\xd3\x8c\xc0\xde\xd3\n6@'
p57
tp58
Rp59
sS'n02799071'
p60
g2
(g6
S'h\x9b\xd0\xc6\x84,6@'
p61
tp62
Rp63
sS'n07754684'
p64
g2
(g6
S'w!_b\xef@7@'
p65
tp66
Rp67
s.