(dp0
S'n02317335'
p1
cnumpy.core.multiarray
scalar
p2
(cnumpy
dtype
p3
(S'f8'
p4
I0
I1
tp5
Rp6
(I3
S'<'
p7
NNNI-1
I-1
I0
tp8
bS"d\xedF+\xd3'I@"
p9
tp10
Rp11
sS'n01558993'
p12
g2
(g6
S'\xd0\xf2\xad5\x8f\x95H@'
p13
tp14
Rp15
sS'n01530575'
p16
g2
(g6
S'\x95\x8b=\x00\xd5oF@'
p17
tp18
Rp19
sS'n03393912'
p20
g2
(g6
S'\x81\x9f\\\xfe\xab\xeaG@'
p21
tp22
Rp23
sS'n02056570'
p24
g2
(g6
S'\xe3!\xbf\x1f.}F@'
p25
tp26
Rp27
sS'n01817953'
p28
g2
(g6
S'\rv\xb9\xebb\x01F@'
p29
tp30
Rp31
sS'n01784675'
p32
g2
(g6
S'O\xee&\xcb\x94-H@'
p33
tp34
Rp35
sS'n02028035'
p36
g2
(g6
S't\xe1\xd0\xfe\x87<F@'
p37
tp38
Rp39
sS'n03272010'
p40
g2
(g6
S'\xf5\xfc\xe8\x80\xba5D@'
p41
tp42
Rp43
sS'n02454379'
p44
g2
(g6
S'X\x14M\x91\xf3\xf3I@'
p45
tp46
Rp47
sS'n02130308'
p48
g2
(g6
S'\xd8\x92w9\x89\xa6I@'
p49
tp50
Rp51
sS'n02509815'
p52
g2
(g6
S'EapR\xc0\xd9H@'
p53
tp54
Rp55
sS'n04074963'
p56
g2
(g6
S'\xca\x8d\xe5\x98\x84,D@'
p57
tp58
Rp59
sS'n02799071'
p60
g2
(g6
S'=\x1f\xe4L\xd0\xf1E@'
p61
tp62
Rp63
sS'n07754684'
p64
g2
(g6
S'{\xd3\xb0\xc4\x99\x12J@'
p65
tp66
Rp67
s.