(dp0
S'n02317335'
p1
cnumpy.core.multiarray
scalar
p2
(cnumpy
dtype
p3
(S'f8'
p4
I0
I1
tp5
Rp6
(I3
S'<'
p7
NNNI-1
I-1
I0
tp8
bS'e\xe3\xde\x07\xcc\x84\xe0?'
p9
tp10
Rp11
sS'n01558993'
p12
g2
(g6
S'\x16\x822\xbc\xbb(\xe0?'
p13
tp14
Rp15
sS'n01530575'
p16
g2
(g6
S'\n\xd3\xa8\x0e#Q\xe0?'
p17
tp18
Rp19
sS'n03393912'
p20
g2
(g6
S'\xffD,;\xdbQ\xe0?'
p21
tp22
Rp23
sS'n02056570'
p24
g2
(g6
S'\xff\xde\x96) $\xe0?'
p25
tp26
Rp27
sS'n01817953'
p28
g2
(g6
S'i\x90\xd6\x9fwm\xe0?'
p29
tp30
Rp31
sS'n01784675'
p32
g2
(g6
S'\x93\x9c[\xe8\x96N\xe0?'
p33
tp34
Rp35
sS'n02028035'
p36
g2
(g6
S"\xf9yW'$%\xe0?"
p37
tp38
Rp39
sS'n03272010'
p40
g2
(g6
S'/\xcd\x9fLts\xe0?'
p41
tp42
Rp43
sS'n02454379'
p44
g2
(g6
S'x\xa9};iO\xe0?'
p45
tp46
Rp47
sS'n02130308'
p48
g2
(g6
S'I\xf8\x08\xdc\xac0\xe0?'
p49
tp50
Rp51
sS'n02509815'
p52
g2
(g6
S'U\xb0\xfa\xfdck\xe0?'
p53
tp54
Rp55
sS'n04074963'
p56
g2
(g6
S'\x9b}\xc9/IJ\xe0?'
p57
tp58
Rp59
sS'n02799071'
p60
g2
(g6
S'\x8f-\x8c\xcflP\xe0?'
p61
tp62
Rp63
sS'n07754684'
p64
g2
(g6
S'\xa3\x84\x8c9\xe5a\xe0?'
p65
tp66
Rp67
s.