(dp0
S'n02317335'
p1
cnumpy.core.multiarray
scalar
p2
(cnumpy
dtype
p3
(S'f8'
p4
I0
I1
tp5
Rp6
(I3
S'<'
p7
NNNI-1
I-1
I0
tp8
bS'h\xa0B\xf2S\xda\x02@'
p9
tp10
Rp11
sS'n01558993'
p12
g2
(g6
S'\x15\x953d\x90,\x02@'
p13
tp14
Rp15
sS'n01530575'
p16
g2
(g6
S'\x81%\x0b&\xcfv\x00@'
p17
tp18
Rp19
sS'n03393912'
p20
g2
(g6
S'k^\x85\xa3\x86\xcb\x02@'
p21
tp22
Rp23
sS'n02056570'
p24
g2
(g6
S'J8\xf3Y\xed\x12\x00@'
p25
tp26
Rp27
sS'n01817953'
p28
g2
(g6
S'3gv\xc1\x1f\xe9\xfe?'
p29
tp30
Rp31
sS'n01784675'
p32
g2
(g6
S'-A\x01\xb8\xec\xbd\x01@'
p33
tp34
Rp35
sS'n02028035'
p36
g2
(g6
S'\xadJ\x88Aqk\xfe?'
p37
tp38
Rp39
sS'n03272010'
p40
g2
(g6
S'\x04(\xa2\x99\x02#\xff?'
p41
tp42
Rp43
sS'n02454379'
p44
g2
(g6
S'%\xb1\xbfW\xd3\xb0\x02@'
p45
tp46
Rp47
sS'n02130308'
p48
g2
(g6
S'\xe3>5\x1eJ\x1e\x02@'
p49
tp50
Rp51
sS'n02509815'
p52
g2
(g6
S"Cw'\xe8\xeb\xed\x00@"
p53
tp54
Rp55
sS'n04074963'
p56
g2
(g6
S'\xd5d\xb15O\xab\xff?'
p57
tp58
Rp59
sS'n02799071'
p60
g2
(g6
S'\x7f\x12r0]^\xff?'
p61
tp62
Rp63
sS'n07754684'
p64
g2
(g6
S'\xdb\x8e\xd5\xb8k\xe5\x01@'
p65
tp66
Rp67
s.