(dp0
S'n02317335'
p1
cnumpy.core.multiarray
scalar
p2
(cnumpy
dtype
p3
(S'f8'
p4
I0
I1
tp5
Rp6
(I3
S'<'
p7
NNNI-1
I-1
I0
tp8
bS' sR35\x19\t@'
p9
tp10
Rp11
sS'n01558993'
p12
g2
(g6
S'x\xc9\xd8A\x08u\n@'
p13
tp14
Rp15
sS'n01530575'
p16
g2
(g6
S'6\\Uo\x9a\x86\x0b@'
p17
tp18
Rp19
sS'n03393912'
p20
g2
(g6
S'\x9d\xe5!\xcf\x02\xc2\x08@'
p21
tp22
Rp23
sS'n02056570'
p24
g2
(g6
S'g\x83PP\x01\xe8\x0b@'
p25
tp26
Rp27
sS'n01817953'
p28
g2
(g6
S'\xe0+\xb4\x95\xac\xbf\x0c@'
p29
tp30
Rp31
sS'n01784675'
p32
g2
(g6
S'\xdb\x93\xc3\x1bz\x1c\x08@'
p33
tp34
Rp35
sS'n02028035'
p36
g2
(g6
S'+g\xb8\xbc\x81d\x07@'
p37
tp38
Rp39
sS'n03272010'
p40
g2
(g6
S'\x8b\x90e<\x83\x8e\x0f@'
p41
tp42
Rp43
sS'n02454379'
p44
g2
(g6
S'\xeb\xfb\x0ch\xeb/\x07@'
p45
tp46
Rp47
sS'n02130308'
p48
g2
(g6
S'\xab\xa6\x80vU\xfb\x05@'
p49
tp50
Rp51
sS'n02509815'
p52
g2
(g6
S'p\xab\xcaa\xa3\xf9\x0b@'
p53
tp54
Rp55
sS'n04074963'
p56
g2
(g6
S'\x1a\xdd\xc3\xa94\xf8\r@'
p57
tp58
Rp59
sS'n02799071'
p60
g2
(g6
S'\xafMQ\xc2!\x91\r@'
p61
tp62
Rp63
sS'n07754684'
p64
g2
(g6
S"\x15\x05\xc0'\x8as\n@"
p65
tp66
Rp67
s.