(dp0
S'n02317335'
p1
cnumpy.core.multiarray
scalar
p2
(cnumpy
dtype
p3
(S'f8'
p4
I0
I1
tp5
Rp6
(I3
S'<'
p7
NNNI-1
I-1
I0
tp8
bS'\x9d\x97B\xd0L\xa4D@'
p9
tp10
Rp11
sS'n01558993'
p12
g2
(g6
S'_\xec\x84a\xb5|D@'
p13
tp14
Rp15
sS'n01530575'
p16
g2
(g6
S"\xa7\xa9\xf3\xca\xe9'C@"
p17
tp18
Rp19
sS'n03393912'
p20
g2
(g6
S'`\xa0\xcd\x8b\xe8\x05D@'
p21
tp22
Rp23
sS'n02056570'
p24
g2
(g6
S'\xfa/\x8fr\xa4)C@'
p25
tp26
Rp27
sS'n01817953'
p28
g2
(g6
S'm=@\x1eL\xbeB@'
p29
tp30
Rp31
sS'n01784675'
p32
g2
(g6
S'\x01I\x9bG0\nD@'
p33
tp34
Rp35
sS'n02028035'
p36
g2
(g6
S'3;\x95\xdd\xb7\xf3B@'
p37
tp38
Rp39
sS'n03272010'
p40
g2
(g6
S'\x0b\x86\n\x8a\xee\x95A@'
p41
tp42
Rp43
sS'n02454379'
p44
g2
(g6
S'\xaf\xb3h\x7f\x836E@'
p45
tp46
Rp47
sS'n02130308'
p48
g2
(g6
S'3\x0bL6\xf6\x0eE@'
p49
tp50
Rp51
sS'n02509815'
p52
g2
(g6
S'[\xde\x947\xbd\x9aD@'
p53
tp54
Rp55
sS'n04074963'
p56
g2
(g6
S'\x96\xe4\xffsc\xa9A@'
p57
tp58
Rp59
sS'n02799071'
p60
g2
(g6
S'\xcc\xdfC\x93A\xaaB@'
p61
tp62
Rp63
sS'n07754684'
p64
g2
(g6
S'\x1aYm\xb9\xa7=E@'
p65
tp66
Rp67
s.