(dp0
S'n02317335'
p1
cnumpy.core.multiarray
scalar
p2
(cnumpy
dtype
p3
(S'f8'
p4
I0
I1
tp5
Rp6
(I3
S'<'
p7
NNNI-1
I-1
I0
tp8
bS'\x9f2\x0c\x07\x1a\xdd\xdb?'
p9
tp10
Rp11
sS'n01558993'
p12
g2
(g6
S'd=(\x90\x07I\xdb?'
p13
tp14
Rp15
sS'n01530575'
p16
g2
(g6
S'\x10\xb4\x04i\x12\x88\xdb?'
p17
tp18
Rp19
sS'n03393912'
p20
g2
(g6
S'\xc8\xb3\xee\x83/\x91\xdb?'
p21
tp22
Rp23
sS'n02056570'
p24
g2
(g6
S'/\x1bL8RB\xdb?'
p25
tp26
Rp27
sS'n01817953'
p28
g2
(g6
S'SMZ1j\x8d\xdb?'
p29
tp30
Rp31
sS'n01784675'
p32
g2
(g6
S'):9\xa9\x18\xa3\xdb?'
p33
tp34
Rp35
sS'n02028035'
p36
g2
(g6
S'\x04\xa8\xaeL\xd4>\xdb?'
p37
tp38
Rp39
sS'n03272010'
p40
g2
(g6
S'?Y\xaeS\x10\xdb\xdb?'
p41
tp42
Rp43
sS'n02454379'
p44
g2
(g6
S"{\xa1C'\x8fu\xdb?"
p45
tp46
Rp47
sS'n02130308'
p48
g2
(g6
S'9]\xcdC"2\xdb?'
p49
tp50
Rp51
sS'n02509815'
p52
g2
(g6
S'\xf8\xaa\x07\xda\xd1\x9c\xdb?'
p53
tp54
Rp55
sS'n04074963'
p56
g2
(g6
S'g<D\x08@\x8b\xdb?'
p57
tp58
Rp59
sS'n02799071'
p60
g2
(g6
S'\xf3 v\xee\xf6\x82\xdb?'
p61
tp62
Rp63
sS'n07754684'
p64
g2
(g6
S'\x9b@\x8dCh\xd5\xdb?'
p65
tp66
Rp67
s.