(dp0
S'n02317335'
p1
cnumpy.core.multiarray
scalar
p2
(cnumpy
dtype
p3
(S'f8'
p4
I0
I1
tp5
Rp6
(I3
S'<'
p7
NNNI-1
I-1
I0
tp8
bS'\x1d\x80n\xb2\xba\xb0\x08@'
p9
tp10
Rp11
sS'n01558993'
p12
g2
(g6
S'\xe7\x1c\x17\\\t\x1f\t@'
p13
tp14
Rp15
sS'n01530575'
p16
g2
(g6
S'\xedrq\x89\x01$\x05@'
p17
tp18
Rp19
sS'n03393912'
p20
g2
(g6
S'\x17c\x1b\x1f\xcb\xb9\x07@'
p21
tp22
Rp23
sS'n02056570'
p24
g2
(g6
S'3\xd2L\xc0Q#\x03@'
p25
tp26
Rp27
sS'n01817953'
p28
g2
(g6
S'\x07\xbe\xf9w}#\x02@'
p29
tp30
Rp31
sS'n01784675'
p32
g2
(g6
S'klD\x80\xbd3\x07@'
p33
tp34
Rp35
sS'n02028035'
p36
g2
(g6
S'\xc9\xa4s\x1da\x82\x04@'
p37
tp38
Rp39
sS'n03272010'
p40
g2
(g6
S'\x1fB\x1da\xfc\x1e\x01@'
p41
tp42
Rp43
sS'n02454379'
p44
g2
(g6
S'\xdb\x0f+\x99\x15\xdf\t@'
p45
tp46
Rp47
sS'n02130308'
p48
g2
(g6
S' \xcb\xc8Igw\t@'
p49
tp50
Rp51
sS'n02509815'
p52
g2
(g6
S'\xf9me\xf2{\x8c\x05@'
p53
tp54
Rp55
sS'n04074963'
p56
g2
(g6
S'\xf5e\xef\xb4\x08\xf0\x01@'
p57
tp58
Rp59
sS'n02799071'
p60
g2
(g6
S'\x94.CF\xd9[\x02@'
p61
tp62
Rp63
sS'n07754684'
p64
g2
(g6
S';\xcf\xfb\xcb \xc5\x08@'
p65
tp66
Rp67
s.