(dp0
S'n02317335'
p1
cnumpy.core.multiarray
scalar
p2
(cnumpy
dtype
p3
(S'f8'
p4
I0
I1
tp5
Rp6
(I3
S'<'
p7
NNNI-1
I-1
I0
tp8
bS'\xe4\xa4^t\x8c;\xb9?'
p9
tp10
Rp11
sS'n01558993'
p12
g2
(g6
S'T\xc3Q[oI\xb4?'
p13
tp14
Rp15
sS'n01530575'
p16
g2
(g6
S'v\xd8;\xe3\xf1R\xb5?'
p17
tp18
Rp19
sS'n03393912'
p20
g2
(g6
S'\xff\x9d\x17\xd5\x8a\r\xb5?'
p21
tp22
Rp23
sS'n02056570'
p24
g2
(g6
S'\x11s\x8a\xae\xe7\xcf\xad?'
p25
tp26
Rp27
sS'n01817953'
p28
g2
(g6
S'\xf7(M#\xcc\xf0\xb2?'
p29
tp30
Rp31
sS'n01784675'
p32
g2
(g6
S'e\x93\x82\xbbX\xdb\xbb?'
p33
tp34
Rp35
sS'n02028035'
p36
g2
(g6
S'\xabpa\x1b\xbd \xb4?'
p37
tp38
Rp39
sS'n03272010'
p40
g2
(g6
S'\xd6\x8d~\xdaI&\xb4?'
p41
tp42
Rp43
sS'n02454379'
p44
g2
(g6
S')\xc4\xb0z\xc1W\xb9?'
p45
tp46
Rp47
sS'n02130308'
p48
g2
(g6
S'X\xfc\xc9zR6\xb6?'
p49
tp50
Rp51
sS'n02509815'
p52
g2
(g6
S'l\xa9&\x1bdC\xb6?'
p53
tp54
Rp55
sS'n04074963'
p56
g2
(g6
S'~b\xb8=3 \xb1?'
p57
tp58
Rp59
sS'n02799071'
p60
g2
(g6
S'\xedzd\xa7\xea\xfb\xb3?'
p61
tp62
Rp63
sS'n07754684'
p64
g2
(g6
S'^\xcfx;\xa8\x03\xb5?'
p65
tp66
Rp67
s.