(dp0
S'n02317335'
p1
cnumpy.core.multiarray
scalar
p2
(cnumpy
dtype
p3
(S'f8'
p4
I0
I1
tp5
Rp6
(I3
S'<'
p7
NNNI-1
I-1
I0
tp8
bS'#\x0c(Y\xf7MI@'
p9
tp10
Rp11
sS'n01558993'
p12
g2
(g6
S'\xeb\xb4\xc0*\x96\xbbH@'
p13
tp14
Rp15
sS'n01530575'
p16
g2
(g6
S'\x81\xd9\x9a\x9dc\x92F@'
p17
tp18
Rp19
sS'n03393912'
p20
g2
(g6
S'\xd1\xb8\x0b\xce\xc8\x0cH@'
p21
tp22
Rp23
sS'n02056570'
p24
g2
(g6
S'\x04\xa8\xc9\xede\x9fF@'
p25
tp26
Rp27
sS'n01817953'
p28
g2
(g6
S'o\xb3|\xf6p F@'
p29
tp30
Rp31
sS'n01784675'
p32
g2
(g6
S'\xc5\xab\x84VfTH@'
p33
tp34
Rp35
sS'n02028035'
p36
g2
(g6
S'\x8f\xb6\xd9Z<cF@'
p37
tp38
Rp39
sS'n03272010'
p40
g2
(g6
S'ge>\x87aQD@'
p41
tp42
Rp43
sS'n02454379'
p44
g2
(g6
S"y'\xc2>\xbd\x1bJ@"
p45
tp46
Rp47
sS'n02130308'
p48
g2
(g6
S'\xd87P-l\xcfI@'
p49
tp50
Rp51
sS'n02509815'
p52
g2
(g6
S'\xa4tP\x1cK\xfeH@'
p53
tp54
Rp55
sS'n04074963'
p56
g2
(g6
S'Vu\xc7g\x8dJD@'
p57
tp58
Rp59
sS'n02799071'
p60
g2
(g6
S' \x9a\x9dQ\x0c\x11F@'
p61
tp62
Rp63
sS'n07754684'
p64
g2
(g6
S'O\x02\x04\x07<=J@'
p65
tp66
Rp67
s.