(dp0
S'n02317335'
p1
cnumpy.core.multiarray
scalar
p2
(cnumpy
dtype
p3
(S'f8'
p4
I0
I1
tp5
Rp6
(I3
S'<'
p7
NNNI-1
I-1
I0
tp8
bS'I1\xb8\xb37r\x0e@'
p9
tp10
Rp11
sS'n01558993'
p12
g2
(g6
S'\x88v\xa1\x1e*\xf1\x0f@'
p13
tp14
Rp15
sS'n01530575'
p16
g2
(g6
S'\xdf\x9c\xeb#\xa8a\x0b@'
p17
tp18
Rp19
sS'n03393912'
p20
g2
(g6
S'\x1bM\xa1 2\xe5\x0b@'
p21
tp22
Rp23
sS'n02056570'
p24
g2
(g6
S'qUJ\x0f\x84\xba\x08@'
p25
tp26
Rp27
sS'n01817953'
p28
g2
(g6
S'\x90\xb6{\x91\xf26\x07@'
p29
tp30
Rp31
sS'n01784675'
p32
g2
(g6
S'\xe7\x96)\x0e\xbfX\x0c@'
p33
tp34
Rp35
sS'n02028035'
p36
g2
(g6
S'u\x832\x83\xe3;\n@'
p37
tp38
Rp39
sS'n03272010'
p40
g2
(g6
S'Ofshh\x8d\x06@'
p41
tp42
Rp43
sS'n02454379'
p44
g2
(g6
S"\xdb'$\n\xda5\x0e@"
p45
tp46
Rp47
sS'n02130308'
p48
g2
(g6
S'\xc9\xa6\x06\x00\xa2\xfd\r@'
p49
tp50
Rp51
sS'n02509815'
p52
g2
(g6
S'{\xe9\x83\xe1\xd9\xf4\n@'
p53
tp54
Rp55
sS'n04074963'
p56
g2
(g6
S'\xdd\xe2\x00-\xac\xdc\x07@'
p57
tp58
Rp59
sS'n02799071'
p60
g2
(g6
S'\xe0\xfb\x14j\xbf\xa7\x07@'
p61
tp62
Rp63
sS'n07754684'
p64
g2
(g6
S'\x148\xc0\xe3y7\x0f@'
p65
tp66
Rp67
s.