(dp0
S'n02317335'
p1
cnumpy.core.multiarray
scalar
p2
(cnumpy
dtype
p3
(S'f8'
p4
I0
I1
tp5
Rp6
(I3
S'<'
p7
NNNI-1
I-1
I0
tp8
bS'\xcdQMWx\xbeF@'
p9
tp10
Rp11
sS'n01558993'
p12
g2
(g6
S'\xbc\x0cph\xae\x9bF@'
p13
tp14
Rp15
sS'n01530575'
p16
g2
(g6
S'\t|\xb9|s\xeeD@'
p17
tp18
Rp19
sS'n03393912'
p20
g2
(g6
S'p\xea\xb4\x04\x13\xcbE@'
p21
tp22
Rp23
sS'n02056570'
p24
g2
(g6
S'\xdb\xcb\xc9C\xa8\xdfD@'
p25
tp26
Rp27
sS'n01817953'
p28
g2
(g6
S']\x9bV\x89\x7fRD@'
p29
tp30
Rp31
sS'n01784675'
p32
g2
(g6
S't\xe9\x84l\x0f\xfaE@'
p33
tp34
Rp35
sS'n02028035'
p36
g2
(g6
S'\xf2\xc86\xc3\x06\x99D@'
p37
tp38
Rp39
sS'n03272010'
p40
g2
(g6
S'\xf6\x7fx\x7f}\xe0B@'
p41
tp42
Rp43
sS'n02454379'
p44
g2
(g6
S'\x01\x8a\xcc\x98ALG@'
p45
tp46
Rp47
sS'n02130308'
p48
g2
(g6
S'9kS5\x08$G@'
p49
tp50
Rp51
sS'n02509815'
p52
g2
(g6
S'\xcd\x03+\x84\xbb\xaeF@'
p53
tp54
Rp55
sS'n04074963'
p56
g2
(g6
S'\xc7=\x83\xbb&\xf0B@'
p57
tp58
Rp59
sS'n02799071'
p60
g2
(g6
S'2 \xcd\xc3\xb8ID@'
p61
tp62
Rp63
sS'n07754684'
p64
g2
(g6
S"'\xc4B\xecu\x8dG@"
p65
tp66
Rp67
s.