(dp0
S'n02317335'
p1
cnumpy.core.multiarray
scalar
p2
(cnumpy
dtype
p3
(S'f8'
p4
I0
I1
tp5
Rp6
(I3
S'<'
p7
NNNI-1
I-1
I0
tp8
bS'\xbc\xd6\xe5\xf3\x98\x167@'
p9
tp10
Rp11
sS'n01558993'
p12
g2
(g6
S'\x15\xd1\x85=\x9b\x1a7@'
p13
tp14
Rp15
sS'n01530575'
p16
g2
(g6
S'tA>\xe3\xa7\xa06@'
p17
tp18
Rp19
sS'n03393912'
p20
g2
(g6
S'\xad\x02\x18\xd05\xd36@'
p21
tp22
Rp23
sS'n02056570'
p24
g2
(g6
S'\x95V\xb3r[?6@'
p25
tp26
Rp27
sS'n01817953'
p28
g2
(g6
S'\xf7"\xd0\xa3@\x106@'
p29
tp30
Rp31
sS'n01784675'
p32
g2
(g6
S'\x94\xb4\xad^\xf3\xfe6@'
p33
tp34
Rp35
sS'n02028035'
p36
g2
(g6
S'\x15q\x81\xab[^6@'
p37
tp38
Rp39
sS'n03272010'
p40
g2
(g6
S'A\xacy%v\xe45@'
p41
tp42
Rp43
sS'n02454379'
p44
g2
(g6
S'\x1frH3>Y7@'
p45
tp46
Rp47
sS'n02130308'
p48
g2
(g6
S'k_y\xa7KQ7@'
p49
tp50
Rp51
sS'n02509815'
p52
g2
(g6
S'H\x08\x83\xb2\xb8\xb36@'
p53
tp54
Rp55
sS'n04074963'
p56
g2
(g6
S'\xfbn\\v\xa6\x0e6@'
p57
tp58
Rp59
sS'n02799071'
p60
g2
(g6
S'TX\xd7*&!6@'
p61
tp62
Rp63
sS'n07754684'
p64
g2
(g6
S'\xbd\x0b\xf9\xce}\x127@'
p65
tp66
Rp67
s.