(dp0
S'n02317335'
p1
cnumpy.core.multiarray
scalar
p2
(cnumpy
dtype
p3
(S'f8'
p4
I0
I1
tp5
Rp6
(I3
S'<'
p7
NNNI-1
I-1
I0
tp8
bS'\xa9@\x89\r\xf724@'
p9
tp10
Rp11
sS'n01558993'
p12
g2
(g6
S'/\xc5\xc7V\xfa34@'
p13
tp14
Rp15
sS'n01530575'
p16
g2
(g6
S'\xcb\x0323\x17 4@'
p17
tp18
Rp19
sS'n03393912'
p20
g2
(g6
S'n\xa3\xeb\xe6\x8e14@'
p21
tp22
Rp23
sS'n02056570'
p24
g2
(g6
S'\xcd\xe2?\xc8D\x104@'
p25
tp26
Rp27
sS'n01817953'
p28
g2
(g6
S'^\xb3m\x9e\x1e\n4@'
p29
tp30
Rp31
sS'n01784675'
p32
g2
(g6
S'\x8c *\x05r/4@'
p33
tp34
Rp35
sS'n02028035'
p36
g2
(g6
S'$\xe4\xce\xcfs\x1a4@'
p37
tp38
Rp39
sS'n03272010'
p40
g2
(g6
S'Y+f\x0ef\x064@'
p41
tp42
Rp43
sS'n02454379'
p44
g2
(g6
S'3\xc0}3\xde;4@'
p45
tp46
Rp47
sS'n02130308'
p48
g2
(g6
S'\xa5\x06M[@;4@'
p49
tp50
Rp51
sS'n02509815'
p52
g2
(g6
S'?\xfcx\x82M"4@'
p53
tp54
Rp55
sS'n04074963'
p56
g2
(g6
S'9k\x83\xb38\n4@'
p57
tp58
Rp59
sS'n02799071'
p60
g2
(g6
S'\xbb\xae\x15,Y\r4@'
p61
tp62
Rp63
sS'n07754684'
p64
g2
(g6
S'\x97\x08\x8eZY34@'
p65
tp66
Rp67
s.