(dp0
S'n02317335'
p1
cnumpy.core.multiarray
scalar
p2
(cnumpy
dtype
p3
(S'f8'
p4
I0
I1
tp5
Rp6
(I3
S'<'
p7
NNNI-1
I-1
I0
tp8
bS'\xc50\xede1nA@'
p9
tp10
Rp11
sS'n01558993'
p12
g2
(g6
S't\xcf\xc6\xce\xbe\x80A@'
p13
tp14
Rp15
sS'n01530575'
p16
g2
(g6
S'7S\xe5\xed\xd7\x86@@'
p17
tp18
Rp19
sS'n03393912'
p20
g2
(g6
S'\xd5\xf1\x00\xc4\xe1MA@'
p21
tp22
Rp23
sS'n02056570'
p24
g2
(g6
S'\xbdH\x1b\x9f\xe6\x93@@'
p25
tp26
Rp27
sS'n01817953'
p28
g2
(g6
S' \x1e\xe4}\xe2;@@'
p29
tp30
Rp31
sS'n01784675'
p32
g2
(g6
S'\xa0[\xa5\x82\x03\x00A@'
p33
tp34
Rp35
sS'n02028035'
p36
g2
(g6
S'\x99\x9d[\xce\x8ej@@'
p37
tp38
Rp39
sS'n03272010'
p40
g2
(g6
S'TB:[n]?@'
p41
tp42
Rp43
sS'n02454379'
p44
g2
(g6
S'\xab\xe0]\xaf\xfa\xbfA@'
p45
tp46
Rp47
sS'n02130308'
p48
g2
(g6
S'\x9f\x1dR\x05\x04\x9dA@'
p49
tp50
Rp51
sS'n02509815'
p52
g2
(g6
S'?\xc5t7\xa9\x85A@'
p53
tp54
Rp55
sS'n04074963'
p56
g2
(g6
S'\x05\x8a\xfd\x0163?@'
p57
tp58
Rp59
sS'n02799071'
p60
g2
(g6
S']\xab\xd6\x03GF@@'
p61
tp62
Rp63
sS'n07754684'
p64
g2
(g6
S'\xe7K\x190v\x00B@'
p65
tp66
Rp67
s.