(dp0
S'n02317335'
p1
cnumpy.core.multiarray
scalar
p2
(cnumpy
dtype
p3
(S'f8'
p4
I0
I1
tp5
Rp6
(I3
S'<'
p7
NNNI-1
I-1
I0
tp8
bS'[F;\x81T\xf14@'
p9
tp10
Rp11
sS'n01558993'
p12
g2
(g6
S'\xe7\xf7\xb0\x92K\xef4@'
p13
tp14
Rp15
sS'n01530575'
p16
g2
(g6
S'1\x02\xd6iL\xc84@'
p17
tp18
Rp19
sS'n03393912'
p20
g2
(g6
S'\x17Da\xfd\xe8\xd24@'
p21
tp22
Rp23
sS'n02056570'
p24
g2
(g6
S'%9d\xc0\x82\xb94@'
p25
tp26
Rp27
sS'n01817953'
p28
g2
(g6
S'(\x9b\xd4\xf8\xed\x9c4@'
p29
tp30
Rp31
sS'n01784675'
p32
g2
(g6
S'\xeb\x94&\xc0\x9a\xe74@'
p33
tp34
Rp35
sS'n02028035'
p36
g2
(g6
S'\xfb\xbee\x85R\xa94@'
p37
tp38
Rp39
sS'n03272010'
p40
g2
(g6
S'\xden8TZ\x914@'
p41
tp42
Rp43
sS'n02454379'
p44
g2
(g6
S'a\xc6\x1d\x0b\xd9\x025@'
p45
tp46
Rp47
sS'n02130308'
p48
g2
(g6
S'\xfd\xd7\x91.j\x035@'
p49
tp50
Rp51
sS'n02509815'
p52
g2
(g6
S'5\xb7\xcal)\xd44@'
p53
tp54
Rp55
sS'n04074963'
p56
g2
(g6
S'\xbd\x1e\x11e\xcc\xa14@'
p57
tp58
Rp59
sS'n02799071'
p60
g2
(g6
S'\xb7\x95nN\xed\xa14@'
p61
tp62
Rp63
sS'n07754684'
p64
g2
(g6
S'\x7f\xcc\xbf_\x11\xef4@'
p65
tp66
Rp67
s.