(dp0
S'n02317335'
p1
cnumpy.core.multiarray
scalar
p2
(cnumpy
dtype
p3
(S'f8'
p4
I0
I1
tp5
Rp6
(I3
S'<'
p7
NNNI-1
I-1
I0
tp8
bS'\xe5\x89\xfd\xad\x82"\xef?'
p9
tp10
Rp11
sS'n01558993'
p12
g2
(g6
S'O?6\xf2\x1d\xd4\xf0?'
p13
tp14
Rp15
sS'n01530575'
p16
g2
(g6
S'1/\r\xb1\xd8\x17\xf2?'
p17
tp18
Rp19
sS'n03393912'
p20
g2
(g6
S'\xdaX\x1d+-\xe4\xed?'
p21
tp22
Rp23
sS'n02056570'
p24
g2
(g6
S':\x0e\xbb\xa1\xf3\xbc\xf1?'
p25
tp26
Rp27
sS'n01817953'
p28
g2
(g6
S'p\xa7>A\xca5\xf1?'
p29
tp30
Rp31
sS'n01784675'
p32
g2
(g6
S'\x8d$\x96\xbc*\x83\xed?'
p33
tp34
Rp35
sS'n02028035'
p36
g2
(g6
S'\xb9\xa7S\x9b\x01\x7f\xec?'
p37
tp38
Rp39
sS'n03272010'
p40
g2
(g6
S'\x0e\xc89YpV\xf0?'
p41
tp42
Rp43
sS'n02454379'
p44
g2
(g6
S'\xe8VP\x8c \xf2\xed?'
p45
tp46
Rp47
sS'n02130308'
p48
g2
(g6
S'$uF\x9fiq\xed?'
p49
tp50
Rp51
sS'n02509815'
p52
g2
(g6
S't\xc6\xf1\xc2P0\xf2?'
p53
tp54
Rp55
sS'n04074963'
p56
g2
(g6
S'~"\x1f\x91\x96\xb5\xf0?'
p57
tp58
Rp59
sS'n02799071'
p60
g2
(g6
S'\xfd\xbaI1i\xe7\xf0?'
p61
tp62
Rp63
sS'n07754684'
p64
g2
(g6
S'\xdc\xc3\x1eY"3\xf1?'
p65
tp66
Rp67
s.