(dp0
S'n02317335'
p1
cnumpy.core.multiarray
scalar
p2
(cnumpy
dtype
p3
(S'f8'
p4
I0
I1
tp5
Rp6
(I3
S'<'
p7
NNNI-1
I-1
I0
tp8
bS'=5\x1eG\x94\x94@@'
p9
tp10
Rp11
sS'n01558993'
p12
g2
(g6
S'\xc3\xcaq\xe3\x06\x8b@@'
p13
tp14
Rp15
sS'n01530575'
p16
g2
(g6
S'\x90+N\x97\xa3\xae?@'
p17
tp18
Rp19
sS'n03393912'
p20
g2
(g6
S'^\x0eH\xf0\x10 @@'
p21
tp22
Rp23
sS'n02056570'
p24
g2
(g6
S'\tL\xfbNP\xb8?@'
p25
tp26
Rp27
sS'n01817953'
p28
g2
(g6
S'\x8c\xe6:1\xb7D?@'
p29
tp30
Rp31
sS'n01784675'
p32
g2
(g6
S'\x8dB\x95\xde\x905@@'
p33
tp34
Rp35
sS'n02028035'
p36
g2
(g6
S'\xaf\xb2\x9c\xbb\xa3\xf6>@'
p37
tp38
Rp39
sS'n03272010'
p40
g2
(g6
S'c;\xa5w.\x92=@'
p41
tp42
Rp43
sS'n02454379'
p44
g2
(g6
S'MuR\x04\x07\xe5@@'
p45
tp46
Rp47
sS'n02130308'
p48
g2
(g6
S'@p\x9f\xf5\xf1\xcb@@'
p49
tp50
Rp51
sS'n02509815'
p52
g2
(g6
S'\xed\xc0\x1a\x7f\xcb\xaf@@'
p53
tp54
Rp55
sS'n04074963'
p56
g2
(g6
S'g\xac\x91\x17\x87\xb9=@'
p57
tp58
Rp59
sS'n02799071'
p60
g2
(g6
S'D\xb8\xbe\xc9\x10\x07?@'
p61
tp62
Rp63
sS'n07754684'
p64
g2
(g6
S'\x0f\x10\x8c\xc1N\xf2@@'
p65
tp66
Rp67
s.