(dp0
S'n02317335'
p1
cnumpy.core.multiarray
scalar
p2
(cnumpy
dtype
p3
(S'f8'
p4
I0
I1
tp5
Rp6
(I3
S'<'
p7
NNNI-1
I-1
I0
tp8
bS'\x10:/Y&\xc5\x10@'
p9
tp10
Rp11
sS'n01558993'
p12
g2
(g6
S'\t\xeb\xfc\x08P|\x12@'
p13
tp14
Rp15
sS'n01530575'
p16
g2
(g6
S'\x97\x0ca$\xc2}\x13@'
p17
tp18
Rp19
sS'n03393912'
p20
g2
(g6
S'\xcb\x8bH\xf1\x0b\xdc\x11@'
p21
tp22
Rp23
sS'n02056570'
p24
g2
(g6
S'\xee\xc1\xea\xbf\x8fZ\x14@'
p25
tp26
Rp27
sS'n01817953'
p28
g2
(g6
S'\x0f\xf4\xa7\xdc$<\x14@'
p29
tp30
Rp31
sS'n01784675'
p32
g2
(g6
S'\xab  \xac \xc9\x0f@'
p33
tp34
Rp35
sS'n02028035'
p36
g2
(g6
S'\r\x02&l\x9e\xd1\x0e@'
p37
tp38
Rp39
sS'n03272010'
p40
g2
(g6
S'd\xcaX\xb3s(\x14@'
p41
tp42
Rp43
sS'n02454379'
p44
g2
(g6
S'\xbd\x01\xed\xd94l\x10@'
p45
tp46
Rp47
sS'n02130308'
p48
g2
(g6
S'\x99\x9d{{\xee\x8e\x0f@'
p49
tp50
Rp51
sS'n02509815'
p52
g2
(g6
S'\xc5\x04Hi?\x95\x13@'
p53
tp54
Rp55
sS'n04074963'
p56
g2
(g6
S'\xd4\x1b\x9er\x01\xaf\x13@'
p57
tp58
Rp59
sS'n02799071'
p60
g2
(g6
S'\xb6q`k\x0fa\x13@'
p61
tp62
Rp63
sS'n07754684'
p64
g2
(g6
S'\xf2\x0b\xdc1:\xbe\x12@'
p65
tp66
Rp67
s.