(dp0
S'n02317335'
p1
cnumpy.core.multiarray
scalar
p2
(cnumpy
dtype
p3
(S'f8'
p4
I0
I1
tp5
Rp6
(I3
S'<'
p7
NNNI-1
I-1
I0
tp8
bS'\x18\xed\x17\xf0\x9cs7@'
p9
tp10
Rp11
sS'n01558993'
p12
g2
(g6
S'\xd9\x8c\x19\xb3\x04d7@'
p13
tp14
Rp15
sS'n01530575'
p16
g2
(g6
S'\xe78_k]\xc96@'
p17
tp18
Rp19
sS'n03393912'
p20
g2
(g6
S'KY\\J\x93#7@'
p21
tp22
Rp23
sS'n02056570'
p24
g2
(g6
S'\xe5\x1c\x12X\x88d6@'
p25
tp26
Rp27
sS'n01817953'
p28
g2
(g6
S'\x9b\x0f\xe0D\x08<6@'
p29
tp30
Rp31
sS'n01784675'
p32
g2
(g6
S'\x88\xb1\xa2\r&W7@'
p33
tp34
Rp35
sS'n02028035'
p36
g2
(g6
S'\xe4\xbc\xc0\xcd\x8a\x9a6@'
p37
tp38
Rp39
sS'n03272010'
p40
g2
(g6
S'\xcf\x98\xbf\x81\x87\x066@'
p41
tp42
Rp43
sS'n02454379'
p44
g2
(g6
S'\xa7\xf6s\xb2(\xca7@'
p45
tp46
Rp47
sS'n02130308'
p48
g2
(g6
S'-\xa4\xac\xe0\xc6\xbf7@'
p49
tp50
Rp51
sS'n02509815'
p52
g2
(g6
S'#LC\x80\x9f\xf06@'
p53
tp54
Rp55
sS'n04074963'
p56
g2
(g6
S'\xad\xbb\x16\x01\xb8,6@'
p57
tp58
Rp59
sS'n02799071'
p60
g2
(g6
S'\xbcO\x87\xbb\x8dO6@'
p61
tp62
Rp63
sS'n07754684'
p64
g2
(g6
S'\xff\xf0\xd6\xa0\xe0o7@'
p65
tp66
Rp67
s.